; Function Attrs: mustprogress uwtable
define void @_ZN3net20QuicUnackedPacketMapC2Ev(ptr noundef nonnull align 8 dereferenceable(120) initializes((0, 96)) %0) unnamed_addr #0 align 2 personality ptr @__gxx_personality_v0 {
  %2 = getelementptr inbounds nuw i8, ptr %0, i64 16
  tail call void @llvm.memset.p0.i64(ptr noundef nonnull align 8 dereferenceable(96) %0, i8 0, i64 96, i1 false)
  tail call void @_ZNSt11_Deque_baseIN3net16TransmissionInfoESaIS1_EE17_M_initialize_mapEm(ptr noundef nonnull align 8 dereferenceable(80) %2, i64 noundef 0)
  %3 = getelementptr inbounds nuw i8, ptr %0, i64 96
  store i64 1, ptr %3, align 8, !tbaa !3
  %4 = getelementptr inbounds nuw i8, ptr %0, i64 104
  tail call void @llvm.memset.p0.i64(ptr noundef nonnull align 8 dereferenceable(16) %4, i8 0, i64 16, i1 false)
  ret void
}